libtwine.so.1 libtwine1 #MINVER#
 _ZN5twine10mutex_baseINS_6detail16recursive_policyEEC1Ev@Base 1.0
 _ZN5twine10mutex_baseINS_6detail16recursive_policyEEC2Ev@Base 1.0
 _ZN5twine11this_thread5yieldEv@Base 1.0
 _ZN5twine11this_thread6get_idEv@Base 1.0
 _ZN5twine14license_stringEv@Base 1.0
 _ZN5twine16copyright_stringEv@Base 1.0
 _ZN5twine6chrono3nowEv@Base 1.0
 _ZN5twine6chrono5sleepERKNS0_6detail8durationIlN4meta4math5ratioIlLl1ELl1000000000EEEEE@Base 1.0
 _ZN5twine6detail11thread_joinERm@Base 1.0
 _ZN5twine6detail13get_thread_idEv@Base 1.0
 _ZN5twine6detail13thread_createERmPNS_6thread11thread_infoE@Base 1.0
 _ZN5twine6detail13thread_detachERm@Base 1.0
 _ZN5twine6thread13bad_thread_idE@Base 1.0
 _ZN5twine6thread20hardware_concurrencyEv@Base 1.0
 _ZN5twine6thread4joinEv@Base 1.0
 _ZN5twine6thread5startEb@Base 1.0
 _ZN5twine6thread6detachEv@Base 1.0
 _ZN5twine6thread8set_funcEPFvPvES1_@Base 1.0
 _ZN5twine6threadC1EPFvPvES1_bb@Base 1.0
 _ZN5twine6threadC1Ev@Base 1.0
 _ZN5twine6threadC2EPFvPvES1_bb@Base 1.0
 _ZN5twine6threadC2Ev@Base 1.0
 _ZN5twine6threadD0Ev@Base 1.0
 _ZN5twine6threadD1Ev@Base 1.0
 _ZN5twine6threadD2Ev@Base 1.0
 _ZN5twine7tasklet4stopEv@Base 1.0
 _ZN5twine7tasklet4waitEv@Base 1.0
 _ZN5twine7tasklet5startEv@Base 1.0
 _ZN5twine7tasklet6wakeupEv@Base 1.0
 _ZN5twine7taskletC1EPFvRS0_PvES2_b@Base 1.0
 _ZN5twine7taskletC1EPNS_9conditionEPNS_10mutex_baseINS_6detail16recursive_policyEEEPFvRS0_PvES9_b@Base 1.0
 _ZN5twine7taskletC2EPFvRS0_PvES2_b@Base 1.0
 _ZN5twine7taskletC2EPNS_9conditionEPNS_10mutex_baseINS_6detail16recursive_policyEEEPFvRS0_PvES9_b@Base 1.0
 _ZN5twine7taskletD0Ev@Base 1.0
 _ZN5twine7taskletD1Ev@Base 1.0
 _ZN5twine7taskletD2Ev@Base 1.0
 _ZN5twine7versionB5cxx11Ev@Base 1.0
 _ZNK5twine6thread6get_idEv@Base 1.0
 _ZNK5twine6thread8joinableEv@Base 1.0
 _ZNK5twine7tasklet9nanosleepENS_6chrono6detail8durationIlN4meta4math5ratioIlLl1ELl1000000000EEEEE@Base 1.0
 _ZTIN4meta6detail11noncopyableE@Base 1.0
 _ZTIN5twine6threadE@Base 1.0
 _ZTIN5twine7taskletE@Base 1.0
 _ZTSN4meta6detail11noncopyableE@Base 1.0
 _ZTSN5twine6threadE@Base 1.0
 _ZTSN5twine7taskletE@Base 1.0
 _ZTVN5twine6threadE@Base 1.0
 _ZTVN5twine7taskletE@Base 1.0
